target datalayout = "e-m:e-p270:32:32-p271:32:32-p272:64:64-i64:64-i128:128-f80:128-n8:16:32:64-S128"
target triple = "x86_64-pc-linux-gnu"

@save_argv = internal global ptr null, align 8
@ps_buffer = internal global ptr null, align 8
@ps_buffer_size = internal global i64 0, align 8
@ps_buffer_cur_len = internal global i64 0, align 8

; Function Attrs: nounwind uwtable
define hidden i32 @is_ps_title_available() #0 {
  %1 = alloca i32, align 4
  %2 = load ptr, ptr @save_argv, align 8
  %3 = icmp ne ptr %2, null
  br i1 %3, label %5, label %4

4:                                                ; preds = %0
  store i32 2, ptr %1, align 4
  br label %10

5:                                                ; preds = %0
  %6 = load ptr, ptr @ps_buffer, align 8
  %7 = icmp ne ptr %6, null
  br i1 %7, label %9, label %8

8:                                                ; preds = %5
  store i32 3, ptr %1, align 4
  br label %10

9:                                                ; preds = %5
  store i32 0, ptr %1, align 4
  br label %10

10:                                               ; preds = %9, %8, %4
  %11 = load i32, ptr %1, align 4
  ret i32 %11
}

; Function Attrs: nounwind uwtable
define hidden i32 @set_ps_title(ptr noundef %0) #0 {
  %2 = alloca i32, align 4
  %3 = alloca ptr, align 8
  %4 = alloca i32, align 4
  store ptr %0, ptr %3, align 8
  %5 = call i32 @is_ps_title_available()
  store i32 %5, ptr %4, align 4
  %6 = load i32, ptr %4, align 4
  %7 = icmp ne i32 %6, 0
  br i1 %7, label %8, label %10

8:                                                ; preds = %1
  %9 = load i32, ptr %4, align 4
  store i32 %9, ptr %2, align 4
  br label %32

10:                                               ; preds = %1
  %11 = load ptr, ptr @ps_buffer, align 8
  %12 = load ptr, ptr %3, align 8
  %13 = load i64, ptr @ps_buffer_size, align 8
  %14 = call ptr @strncpy(ptr noundef %11, ptr noundef %12, i64 noundef %13) #8
  %15 = load ptr, ptr @ps_buffer, align 8
  %16 = load i64, ptr @ps_buffer_size, align 8
  %17 = sub i64 %16, 1
  %18 = getelementptr inbounds i8, ptr %15, i64 %17
  store i8 0, ptr %18, align 1
  %19 = load ptr, ptr @ps_buffer, align 8
  %20 = call i64 @strlen(ptr noundef %19) #6
  store i64 %20, ptr @ps_buffer_cur_len, align 8
  %21 = load i64, ptr @ps_buffer_cur_len, align 8
  %22 = load i64, ptr @ps_buffer_size, align 8
  %23 = icmp ult i64 %21, %22
  br i1 %23, label %24, label %31

24:                                               ; preds = %10
  %25 = load ptr, ptr @ps_buffer, align 8
  %26 = load i64, ptr @ps_buffer_cur_len, align 8
  %27 = getelementptr inbounds i8, ptr %25, i64 %26
  %28 = load i64, ptr @ps_buffer_size, align 8
  %29 = load i64, ptr @ps_buffer_cur_len, align 8
  %30 = sub i64 %28, %29
  call void @llvm.memset.p0.i64(ptr align 1 %27, i8 0, i64 %30, i1 false)
  br label %31

31:                                               ; preds = %24, %10
  store i32 0, ptr %2, align 4
  br label %32

32:                                               ; preds = %31, %8
  %33 = load i32, ptr %2, align 4
  ret i32 %33
}