; Function Attrs: mustprogress nofree nounwind willreturn memory(readwrite, inaccessiblemem: none) uwtable
define hidden i32 @set_ps_title(ptr nocapture noundef readonly %0) local_unnamed_addr #8 {
  %2 = load ptr, ptr @save_argv, align 8
  %.not.i = icmp eq ptr %2, null
  %3 = load ptr, ptr @ps_buffer, align 8
  %.not1.i = icmp eq ptr %3, null
  %..i = select i1 %.not1.i, i32 3, i32 0
  %.0.i = select i1 %.not.i, i32 2, i32 %..i
  %.not = icmp eq i32 %.0.i, 0
  br i1 %.not, label %4, label %14

4:                                                ; preds = %1
  %5 = load i64, ptr @ps_buffer_size, align 8
  %6 = tail call ptr @strncpy(ptr noundef %3, ptr noundef %0, i64 noundef %5) #14
  %7 = getelementptr i8, ptr %3, i64 %5
  %8 = getelementptr i8, ptr %7, i64 -1
  store i8 0, ptr %8, align 1
  %9 = tail call i64 @strlen(ptr noundef nonnull dereferenceable(1) %3) #12
  store i64 %9, ptr @ps_buffer_cur_len, align 8
  %10 = icmp ult i64 %9, %5
  br i1 %10, label %11, label %14

11:                                               ; preds = %4
  %12 = getelementptr inbounds i8, ptr %3, i64 %9
  %13 = sub i64 %5, %9
  tail call void @llvm.memset.p0.i64(ptr align 1 %12, i8 0, i64 %13, i1 false)
  br label %14

14:                                               ; preds = %4, %11, %1
  ret i32 %.0.i
}